target datalayout = "e-m:e-p270:32:32-p271:32:32-p272:64:64-i64:64-i128:128-f80:128-n8:16:32:64-S128"
target triple = "x86_64-pc-linux-gnu"

%struct.If_Grp_t_ = type { i8, i8, [16 x i8] }

; Function Attrs: inlinehint nounwind uwtable
define internal float @Abc_MaxFloat(float noundef %0, float noundef %1) #3 {
  %3 = alloca float, align 4
  %4 = alloca float, align 4
  store float %0, ptr %3, align 4, !tbaa !195
  store float %1, ptr %4, align 4, !tbaa !195
  %5 = load float, ptr %3, align 4, !tbaa !195
  %6 = load float, ptr %4, align 4, !tbaa !195
  %7 = fcmp ogt float %5, %6
  br i1 %7, label %8, label %10

8:                                                ; preds = %2
  %9 = load float, ptr %3, align 4, !tbaa !195
  br label %12

10:                                               ; preds = %2
  %11 = load float, ptr %4, align 4, !tbaa !195
  br label %12

12:                                               ; preds = %10, %8
  %13 = phi float [ %9, %8 ], [ %11, %10 ]
  ret float %13
}

; Function Attrs: nounwind uwtable
define float @If_CluDelayMax(ptr noundef %0, ptr noundef %1) #0 {
  %3 = alloca ptr, align 8
  %4 = alloca ptr, align 8
  %5 = alloca float, align 4
  %6 = alloca i32, align 4
  store ptr %0, ptr %3, align 8, !tbaa !106
  store ptr %1, ptr %4, align 8, !tbaa !194
  call void @llvm.lifetime.start.p0(i64 4, ptr %5) #11
  store float 0.000000e+00, ptr %5, align 4, !tbaa !195
  call void @llvm.lifetime.start.p0(i64 4, ptr %6) #11
  store i32 0, ptr %6, align 4, !tbaa !3
  br label %7

7:                                                ; preds = %28, %2
  %8 = load i32, ptr %6, align 4, !tbaa !3
  %9 = load ptr, ptr %3, align 8, !tbaa !106
  %10 = getelementptr inbounds nuw %struct.If_Grp_t_, ptr %9, i32 0, i32 0
  %11 = load i8, ptr %10, align 1, !tbaa !49
  %12 = sext i8 %11 to i32
  %13 = icmp slt i32 %8, %12
  br i1 %13, label %14, label %31

14:                                               ; preds = %7
  %15 = load float, ptr %5, align 4, !tbaa !195
  %16 = load ptr, ptr %4, align 8, !tbaa !194
  %17 = load ptr, ptr %3, align 8, !tbaa !106
  %18 = getelementptr inbounds nuw %struct.If_Grp_t_, ptr %17, i32 0, i32 2
  %19 = load i32, ptr %6, align 4, !tbaa !3
  %20 = sext i32 %19 to i64
  %21 = getelementptr inbounds [16 x i8], ptr %18, i64 0, i64 %20
  %22 = load i8, ptr %21, align 1, !tbaa !46
  %23 = sext i8 %22 to i32
  %24 = sext i32 %23 to i64
  %25 = getelementptr inbounds float, ptr %16, i64 %24
  %26 = load float, ptr %25, align 4, !tbaa !195
  %27 = call float @Abc_MaxFloat(float noundef %15, float noundef %26)
  store float %27, ptr %5, align 4, !tbaa !195
  br label %28

28:                                               ; preds = %14
  %29 = load i32, ptr %6, align 4, !tbaa !3
  %30 = add nsw i32 %29, 1
  store i32 %30, ptr %6, align 4, !tbaa !3
  br label %7, !llvm.loop !196

31:                                               ; preds = %7
  %32 = load float, ptr %5, align 4, !tbaa !195
  call void @llvm.lifetime.end.p0(i64 4, ptr %6) #11
  call void @llvm.lifetime.end.p0(i64 4, ptr %5) #11
  ret float %32
}