; Function Attrs: nofree norecurse nosync nounwind memory(argmem: read) uwtable
define float @If_CluDelayMax(ptr noundef readonly captures(none) %0, ptr noundef readonly captures(none) %1) local_unnamed_addr #3 {
  %3 = load i8, ptr %0, align 1, !tbaa !110
  %4 = icmp sgt i8 %3, 0
  br i1 %4, label %.lr.ph, label %._crit_edge

.lr.ph:                                           ; preds = %2
  %wide.trip.count = zext nneg i8 %3 to i64
  %5 = getelementptr inbounds nuw i8, ptr %0, i64 2
  br label %6

6:                                                ; preds = %.lr.ph, %6
  %indvars.iv = phi i64 [ 0, %.lr.ph ], [ %indvars.iv.next, %6 ]
  %.078 = phi float [ 0.000000e+00, %.lr.ph ], [ %13, %6 ]
  %7 = getelementptr inbounds nuw [16 x i8], ptr %5, i64 0, i64 %indvars.iv
  %8 = load i8, ptr %7, align 1, !tbaa !59
  %9 = sext i8 %8 to i64
  %10 = getelementptr inbounds float, ptr %1, i64 %9
  %11 = load float, ptr %10, align 4, !tbaa !199
  %12 = fcmp ogt float %.078, %11
  %13 = select i1 %12, float %.078, float %11
  %indvars.iv.next = add nuw nsw i64 %indvars.iv, 1
  %exitcond.not = icmp eq i64 %indvars.iv.next, %wide.trip.count
  br i1 %exitcond.not, label %._crit_edge, label %6, !llvm.loop !200

._crit_edge:                                      ; preds = %6, %2
  %.07.lcssa = phi float [ 0.000000e+00, %2 ], [ %13, %6 ]
  ret float %.07.lcssa
}